target datalayout = "e-m:e-p270:32:32-p271:32:32-p272:64:64-i64:64-i128:128-f80:128-n8:16:32:64-S128"
target triple = "x86_64-unknown-linux-gnu"

%"class.OpenColorIO_v2_4dev::DisplayViewTransform" = type { %"class.OpenColorIO_v2_4dev::Transform", ptr }
%"class.OpenColorIO_v2_4dev::Transform" = type { ptr }
%"class.OpenColorIO_v2_4dev::DisplayViewTransform::Impl" = type <{ i32, [4 x i8], %"class.std::__cxx11::basic_string", %"class.std::__cxx11::basic_string", %"class.std::__cxx11::basic_string", i8, i8, [6 x i8] }>
%"class.std::__cxx11::basic_string" = type { %"struct.std::__cxx11::basic_string<char>::_Alloc_hider", i64, %union.anon }
%"struct.std::__cxx11::basic_string<char>::_Alloc_hider" = type { ptr }
%union.anon = type { i64, [8 x i8] }

; Function Attrs: mustprogress nounwind uwtable
define linkonce_odr hidden noundef ptr @_ZNK19OpenColorIO_v2_4dev20DisplayViewTransform7getImplEv(ptr noundef nonnull align 8 dereferenceable(16) %this) #3 comdat align 2 {
entry:
  %this.addr = alloca ptr, align 8
  store ptr %this, ptr %this.addr, align 8
  %this1 = load ptr, ptr %this.addr, align 8
  %m_impl = getelementptr inbounds %"class.OpenColorIO_v2_4dev::DisplayViewTransform", ptr %this1, i32 0, i32 1
  %0 = load ptr, ptr %m_impl, align 8
  ret ptr %0
}

; Function Attrs: mustprogress uwtable
define noundef zeroext i1 @_ZNK19OpenColorIO_v2_4dev20DisplayViewTransform14getLooksBypassEv(ptr noundef nonnull align 8 dereferenceable(16) %this) #0 align 2 {
entry:
  %this.addr = alloca ptr, align 8
  store ptr %this, ptr %this.addr, align 8
  %this1 = load ptr, ptr %this.addr, align 8
  %call = call noundef ptr @_ZNK19OpenColorIO_v2_4dev20DisplayViewTransform7getImplEv(ptr noundef nonnull align 8 dereferenceable(16) %this1)
  %m_looksBypass = getelementptr inbounds %"class.OpenColorIO_v2_4dev::DisplayViewTransform::Impl", ptr %call, i32 0, i32 5
  %0 = load i8, ptr %m_looksBypass, align 8
  %tobool = trunc i8 %0 to i1
  ret i1 %tobool
}